; Function Attrs: mustprogress uwtable
define dso_local void @_ZNK4i18n12phonenumbers15PhoneNumberUtil20FormatNsnWithCarrierERKNSt7__cxx1112basic_stringIcSt11char_traitsIcESaIcEEERKNS0_13PhoneMetadataENS1_17PhoneNumberFormatES9_PS7_(ptr nocapture noundef nonnull readonly align 8 dereferenceable(64) %0, ptr noundef nonnull align 8 dereferenceable(32) %1, ptr noundef nonnull align 8 dereferenceable(280) %2, i32 noundef %3, ptr noundef nonnull align 8 dereferenceable(32) %4, ptr noundef %5) local_unnamed_addr #4 align 2 personality ptr @__gxx_personality_v0 {
  %7 = alloca %"class.google::protobuf::RepeatedPtrField.54", align 8
  %8 = getelementptr inbounds i8, ptr %2, i64 56
  %9 = load i32, ptr %8, align 8
  %10 = icmp eq i32 %9, 0
  %11 = icmp eq i32 %3, 2
  %or.cond = or i1 %11, %10
  %.v = select i1 %or.cond, i64 24, i64 48
  %12 = getelementptr inbounds i8, ptr %2, i64 %.v
  call void @llvm.memset.p0.i64(ptr noundef nonnull align 8 dereferenceable(24) %7, i8 0, i64 24, i1 false)
  call void @_ZN6google8protobuf8internal20RepeatedPtrFieldBase9MergeFromINS0_16RepeatedPtrFieldIN4i18n12phonenumbers12NumberFormatEE11TypeHandlerEEEvRKS2_(ptr noundef nonnull align 8 dereferenceable(24) %7, ptr noundef nonnull align 8 dereferenceable(24) %12)
  %13 = invoke noundef ptr @_ZNK4i18n12phonenumbers15PhoneNumberUtil32ChooseFormattingPatternForNumberERKN6google8protobuf16RepeatedPtrFieldINS0_12NumberFormatEEERKNSt7__cxx1112basic_stringIcSt11char_traitsIcESaIcEEE(ptr noundef nonnull align 8 dereferenceable(64) %0, ptr noundef nonnull align 8 dereferenceable(24) %7, ptr noundef nonnull align 8 dereferenceable(32) %1)
          to label %14 unwind label %17

14:                                               ; preds = %6
  %.not = icmp eq ptr %13, null
  br i1 %.not, label %15, label %19

15:                                               ; preds = %14
  %16 = invoke noundef nonnull align 8 dereferenceable(32) ptr @_ZNSt7__cxx1112basic_stringIcSt11char_traitsIcESaIcEE6assignERKS4_(ptr noundef nonnull align 8 dereferenceable(32) %5, ptr noundef nonnull align 8 dereferenceable(32) %1)
          to label %20 unwind label %17

17:                                               ; preds = %19, %15, %6
  %18 = landingpad { ptr, i32 }
          cleanup
  call void @_ZN6google8protobuf16RepeatedPtrFieldIN4i18n12phonenumbers12NumberFormatEED2Ev(ptr noundef nonnull align 8 dereferenceable(24) %7) #26
  resume { ptr, i32 } %18

19:                                               ; preds = %14
  invoke void @_ZNK4i18n12phonenumbers15PhoneNumberUtil32FormatNsnUsingPatternWithCarrierERKNSt7__cxx1112basic_stringIcSt11char_traitsIcESaIcEEERKNS0_12NumberFormatENS1_17PhoneNumberFormatES9_PS7_(ptr noundef nonnull align 8 dereferenceable(64) %0, ptr noundef nonnull align 8 dereferenceable(32) %1, ptr noundef nonnull align 8 dereferenceable(88) %13, i32 noundef %3, ptr noundef nonnull align 8 dereferenceable(32) %4, ptr noundef %5)
          to label %20 unwind label %17

20:                                               ; preds = %19, %15
  %21 = getelementptr inbounds i8, ptr %7, i64 16
  %22 = load ptr, ptr %21, align 8
  %.not.i.i = icmp ne ptr %22, null
  %23 = load ptr, ptr %7, align 8
  %24 = icmp eq ptr %23, null
  %or.cond.i.i = select i1 %.not.i.i, i1 %24, i1 false
  br i1 %or.cond.i.i, label %25, label %_ZN6google8protobuf16RepeatedPtrFieldIN4i18n12phonenumbers12NumberFormatEED2Ev.exit

25:                                               ; preds = %20
  %26 = load i32, ptr %22, align 8
  %27 = getelementptr inbounds i8, ptr %22, i64 8
  %28 = icmp sgt i32 %26, 0
  br i1 %28, label %.lr.ph.preheader.i.i, label %._crit_edge.i.i

.lr.ph.preheader.i.i:                             ; preds = %25
  %wide.trip.count.i.i = zext nneg i32 %26 to i64
  br label %.lr.ph.i.i

.lr.ph.i.i:                                       ; preds = %_ZN6google8protobuf8internal18GenericTypeHandlerIN4i18n12phonenumbers12NumberFormatEE6DeleteEPS5_PNS0_5ArenaE.exit.i.i, %.lr.ph.preheader.i.i
  %indvars.iv.i.i = phi i64 [ 0, %.lr.ph.preheader.i.i ], [ %indvars.iv.next.i.i, %_ZN6google8protobuf8internal18GenericTypeHandlerIN4i18n12phonenumbers12NumberFormatEE6DeleteEPS5_PNS0_5ArenaE.exit.i.i ]
  %29 = getelementptr inbounds ptr, ptr %27, i64 %indvars.iv.i.i
  %30 = load ptr, ptr %29, align 8
  %31 = icmp eq ptr %30, null
  br i1 %31, label %_ZN6google8protobuf8internal18GenericTypeHandlerIN4i18n12phonenumbers12NumberFormatEE6DeleteEPS5_PNS0_5ArenaE.exit.i.i, label %32

32:                                               ; preds = %.lr.ph.i.i
  call void @_ZN4i18n12phonenumbers12NumberFormatD1Ev(ptr noundef nonnull align 8 dereferenceable(88) %30) #26
  call void @_ZdlPv(ptr noundef nonnull %30) #29
  br label %_ZN6google8protobuf8internal18GenericTypeHandlerIN4i18n12phonenumbers12NumberFormatEE6DeleteEPS5_PNS0_5ArenaE.exit.i.i

_ZN6google8protobuf8internal18GenericTypeHandlerIN4i18n12phonenumbers12NumberFormatEE6DeleteEPS5_PNS0_5ArenaE.exit.i.i: ; preds = %32, %.lr.ph.i.i
  %indvars.iv.next.i.i = add nuw nsw i64 %indvars.iv.i.i, 1
  %exitcond.not.i.i = icmp eq i64 %indvars.iv.next.i.i, %wide.trip.count.i.i
  br i1 %exitcond.not.i.i, label %._crit_edge.loopexit.i.i, label %.lr.ph.i.i, !llvm.loop !97

._crit_edge.loopexit.i.i:                         ; preds = %_ZN6google8protobuf8internal18GenericTypeHandlerIN4i18n12phonenumbers12NumberFormatEE6DeleteEPS5_PNS0_5ArenaE.exit.i.i
  %.pre.i.i = load ptr, ptr %21, align 8
  br label %._crit_edge.i.i

._crit_edge.i.i:                                  ; preds = %._crit_edge.loopexit.i.i, %25
  %33 = phi ptr [ %.pre.i.i, %._crit_edge.loopexit.i.i ], [ %22, %25 ]
  call void @_ZdlPv(ptr noundef %33) #26
  br label %_ZN6google8protobuf16RepeatedPtrFieldIN4i18n12phonenumbers12NumberFormatEED2Ev.exit

_ZN6google8protobuf16RepeatedPtrFieldIN4i18n12phonenumbers12NumberFormatEED2Ev.exit: ; preds = %20, %._crit_edge.i.i
  ret void
}